; Function Attrs: mustprogress nofree norecurse nosync nounwind willreturn memory(read, inaccessiblemem: none) uwtable
define noundef zeroext i1 @_ZNK7rocksdb28PartitionedFilterBlockReader33user_defined_timestamps_persistedEv(ptr noundef nonnull readonly align 8 captures(none) dereferenceable(120) %0) local_unnamed_addr #11 align 2 {
  %2 = getelementptr inbounds nuw i8, ptr %0, i64 8
  %3 = load ptr, ptr %2, align 8, !tbaa !162
  %4 = getelementptr inbounds nuw i8, ptr %3, i64 8
  %5 = load ptr, ptr %4, align 8, !tbaa !302
  %6 = getelementptr inbounds nuw i8, ptr %5, i64 766
  %7 = load i8, ptr %6, align 2, !tbaa !409, !range !97, !noundef !98
  %8 = trunc nuw i8 %7 to i1
  ret i1 %8
}